target datalayout = "e-m:e-p270:32:32-p271:32:32-p272:64:64-i64:64-i128:128-f80:128-n8:16:32:64-S128"
target triple = "x86_64-pc-linux-gnu"

; Function Attrs: nounwind uwtable
define i32 @lzma_upack_esi_50(ptr noundef %0, i32 noundef %1, i32 noundef %2, ptr noundef %3, ptr noundef %4, ptr noundef %5, ptr noundef %6, i32 noundef %7) #0 {
  %9 = alloca i32, align 4
  %10 = alloca ptr, align 8
  %11 = alloca i32, align 4
  %12 = alloca i32, align 4
  %13 = alloca ptr, align 8
  %14 = alloca ptr, align 8
  %15 = alloca ptr, align 8
  %16 = alloca ptr, align 8
  %17 = alloca i32, align 4
  %18 = alloca i32, align 4
  %19 = alloca i32, align 4
  store ptr %0, ptr %10, align 8
  store i32 %1, ptr %11, align 4
  store i32 %2, ptr %12, align 4
  store ptr %3, ptr %13, align 8
  store ptr %4, ptr %14, align 8
  store ptr %5, ptr %15, align 8
  store ptr %6, ptr %16, align 8
  store i32 %7, ptr %17, align 4
  %20 = load i32, ptr %11, align 4
  store i32 %20, ptr %18, align 4
  br label %21

21:                                               ; preds = %43, %8
  %22 = load ptr, ptr %14, align 8
  %23 = load i32, ptr %18, align 4
  %24 = shl i32 %23, 2
  %25 = zext i32 %24 to i64
  %26 = getelementptr inbounds i8, ptr %22, i64 %25
  %27 = load ptr, ptr %13, align 8
  store ptr %26, ptr %27, align 8
  %28 = load ptr, ptr %10, align 8
  %29 = load ptr, ptr %13, align 8
  %30 = load ptr, ptr %29, align 8
  %31 = load ptr, ptr %16, align 8
  %32 = load i32, ptr %17, align 4
  %33 = call i32 @lzma_upack_esi_00(ptr noundef %28, ptr noundef %30, ptr noundef %31, i32 noundef %32)
  store i32 %33, ptr %19, align 4
  %34 = icmp eq i32 %33, -1
  br i1 %34, label %35, label %36

35:                                               ; preds = %21
  store i32 -1, ptr %9, align 4
  br label %52

36:                                               ; preds = %21
  %37 = load i32, ptr %18, align 4
  %38 = load i32, ptr %18, align 4
  %39 = add i32 %38, %37
  store i32 %39, ptr %18, align 4
  %40 = load i32, ptr %19, align 4
  %41 = load i32, ptr %18, align 4
  %42 = add i32 %41, %40
  store i32 %42, ptr %18, align 4
  br label %43

43:                                               ; preds = %36
  %44 = load i32, ptr %18, align 4
  %45 = load i32, ptr %12, align 4
  %46 = icmp ult i32 %44, %45
  br i1 %46, label %21, label %47

47:                                               ; preds = %43
  %48 = load i32, ptr %18, align 4
  %49 = load i32, ptr %12, align 4
  %50 = sub i32 %48, %49
  %51 = load ptr, ptr %15, align 8
  store i32 %50, ptr %51, align 4
  store i32 0, ptr %9, align 4
  br label %52

52:                                               ; preds = %47, %35
  %53 = load i32, ptr %9, align 4
  ret i32 %53
}

; Function Attrs: nounwind uwtable
define i32 @lzma_upack_esi_54(ptr noundef %0, i32 noundef %1, ptr noundef %2, ptr noundef %3, ptr noundef %4, ptr noundef %5, i32 noundef %6) #0 {
  %8 = alloca i32, align 4
  %9 = alloca ptr, align 8
  %10 = alloca i32, align 4
  %11 = alloca ptr, align 8
  %12 = alloca ptr, align 8
  %13 = alloca ptr, align 8
  %14 = alloca ptr, align 8
  %15 = alloca i32, align 4
  %16 = alloca i32, align 4
  %17 = alloca i32, align 4
  store ptr %0, ptr %9, align 8
  store i32 %1, ptr %10, align 4
  store ptr %2, ptr %11, align 8
  store ptr %3, ptr %12, align 8
  store ptr %4, ptr %13, align 8
  store ptr %5, ptr %14, align 8
  store i32 %6, ptr %15, align 4
  %18 = load i32, ptr %10, align 4
  store i32 %18, ptr %17, align 4
  %19 = load ptr, ptr %11, align 8
  %20 = load i32, ptr %19, align 4
  %21 = and i32 %20, -256
  %22 = or i32 %21, 8
  %23 = load ptr, ptr %11, align 8
  store i32 %22, ptr %23, align 4
  %24 = load ptr, ptr %9, align 8
  %25 = load ptr, ptr %12, align 8
  %26 = load ptr, ptr %25, align 8
  %27 = load ptr, ptr %14, align 8
  %28 = load i32, ptr %15, align 4
  %29 = call i32 @lzma_upack_esi_00(ptr noundef %24, ptr noundef %26, ptr noundef %27, i32 noundef %28)
  store i32 %29, ptr %16, align 4
  %30 = load ptr, ptr %12, align 8
  %31 = load ptr, ptr %30, align 8
  %32 = getelementptr inbounds i8, ptr %31, i64 4
  %33 = load ptr, ptr %12, align 8
  store ptr %32, ptr %33, align 8
  %34 = load i32, ptr %17, align 4
  %35 = and i32 %34, -256
  %36 = or i32 %35, 1
  store i32 %36, ptr %17, align 4
  %37 = load i32, ptr %16, align 4
  %38 = icmp ne i32 %37, 0
  br i1 %38, label %39, label %55

39:                                               ; preds = %7
  %40 = load ptr, ptr %9, align 8
  %41 = load ptr, ptr %12, align 8
  %42 = load ptr, ptr %41, align 8
  %43 = load ptr, ptr %14, align 8
  %44 = load i32, ptr %15, align 4
  %45 = call i32 @lzma_upack_esi_00(ptr noundef %40, ptr noundef %42, ptr noundef %43, i32 noundef %44)
  store i32 %45, ptr %16, align 4
  %46 = load i32, ptr %17, align 4
  %47 = or i32 %46, 8
  store i32 %47, ptr %17, align 4
  %48 = load i32, ptr %16, align 4
  %49 = icmp ne i32 %48, 0
  br i1 %49, label %50, label %54

50:                                               ; preds = %39
  %51 = load ptr, ptr %11, align 8
  %52 = load i32, ptr %51, align 4
  %53 = shl i32 %52, 5
  store i32 %53, ptr %51, align 4
  store i32 17, ptr %17, align 4
  br label %54

54:                                               ; preds = %50, %39
  br label %55

55:                                               ; preds = %54, %7
  %56 = load i32, ptr %17, align 4
  store i32 %56, ptr %16, align 4
  %57 = load ptr, ptr %9, align 8
  %58 = load ptr, ptr %11, align 8
  %59 = load i32, ptr %58, align 4
  %60 = load ptr, ptr %12, align 8
  %61 = load ptr, ptr %12, align 8
  %62 = load ptr, ptr %61, align 8
  %63 = load i32, ptr %17, align 4
  %64 = shl i32 %63, 2
  %65 = zext i32 %64 to i64
  %66 = getelementptr inbounds i8, ptr %62, i64 %65
  %67 = load ptr, ptr %14, align 8
  %68 = load i32, ptr %15, align 4
  %69 = call i32 @lzma_upack_esi_50(ptr noundef %57, i32 noundef 1, i32 noundef %59, ptr noundef %60, ptr noundef %66, ptr noundef %17, ptr noundef %67, i32 noundef %68)
  %70 = icmp eq i32 %69, -1
  br i1 %70, label %71, label %72

71:                                               ; preds = %55
  store i32 -1, ptr %8, align 4
  br label %77

72:                                               ; preds = %55
  %73 = load i32, ptr %16, align 4
  %74 = load i32, ptr %17, align 4
  %75 = add i32 %73, %74
  %76 = load ptr, ptr %13, align 8
  store i32 %75, ptr %76, align 4
  store i32 0, ptr %8, align 4
  br label %77

77:                                               ; preds = %72, %71
  %78 = load i32, ptr %8, align 4
  ret i32 %78
}