; Function Attrs: nounwind uwtable
define noundef i32 @lzma_upack_esi_54(ptr nocapture noundef %0, i32 noundef %1, ptr nocapture noundef %2, ptr nocapture noundef %3, ptr nocapture noundef writeonly %4, ptr noundef %5, i32 noundef %6) local_unnamed_addr #0 {
  %8 = load i32, ptr %2, align 4
  %9 = and i32 %8, -256
  %10 = or disjoint i32 %9, 8
  store i32 %10, ptr %2, align 4
  %11 = load ptr, ptr %3, align 8
  %12 = tail call i32 @lzma_upack_esi_00(ptr noundef %0, ptr noundef %11, ptr noundef %5, i32 noundef %6), !range !4
  %13 = load ptr, ptr %3, align 8
  %14 = getelementptr inbounds i8, ptr %13, i64 4
  store ptr %14, ptr %3, align 8
  %15 = and i32 %1, -256
  %.not = icmp eq i32 %12, 0
  br i1 %.not, label %._crit_edge, label %17

._crit_edge:                                      ; preds = %7
  %16 = or disjoint i32 %15, 1
  %.pre = load i32, ptr %2, align 4
  br label %22

17:                                               ; preds = %7
  %18 = tail call i32 @lzma_upack_esi_00(ptr noundef %0, ptr noundef nonnull %14, ptr noundef %5, i32 noundef %6), !range !4
  %19 = or disjoint i32 %15, 9
  %.not24 = icmp eq i32 %18, 0
  %.pre31 = load i32, ptr %2, align 4
  br i1 %.not24, label %22, label %20

20:                                               ; preds = %17
  %21 = shl i32 %.pre31, 5
  store i32 %21, ptr %2, align 4
  br label %22

22:                                               ; preds = %._crit_edge, %17, %20
  %23 = phi i32 [ %.pre, %._crit_edge ], [ %.pre31, %17 ], [ %21, %20 ]
  %.028 = phi i32 [ %16, %._crit_edge ], [ %19, %17 ], [ 17, %20 ]
  %24 = load ptr, ptr %3, align 8
  %25 = shl i32 %.028, 2
  %26 = zext i32 %25 to i64
  %27 = getelementptr inbounds i8, ptr %24, i64 %26
  br label %28

28:                                               ; preds = %34, %22
  %.017.i = phi i32 [ 1, %22 ], [ %36, %34 ]
  %29 = shl i32 %.017.i, 2
  %30 = zext i32 %29 to i64
  %31 = getelementptr inbounds i8, ptr %27, i64 %30
  store ptr %31, ptr %3, align 8
  %32 = tail call i32 @lzma_upack_esi_00(ptr noundef %0, ptr noundef %31, ptr noundef %5, i32 noundef %6), !range !4
  %33 = icmp eq i32 %32, -1
  br i1 %33, label %lzma_upack_esi_50.exit.thread, label %34

34:                                               ; preds = %28
  %35 = shl i32 %.017.i, 1
  %36 = add nuw i32 %32, %35
  %37 = icmp ult i32 %36, %23
  br i1 %37, label %28, label %38

38:                                               ; preds = %34
  %39 = sub i32 %.028, %23
  %40 = add i32 %39, %36
  store i32 %40, ptr %4, align 4
  br label %lzma_upack_esi_50.exit.thread

lzma_upack_esi_50.exit.thread:                    ; preds = %28, %38
  %.0 = phi i32 [ 0, %38 ], [ -1, %28 ]
  ret i32 %.0
}